(dp0
S'Sofianitz'
p1
(lp2
I1023951
asS'Ho Polites'
p3
(lp4
I56406019
asS'ron'
p5
(lp6
I59239267
aI63383155
aI21882402
aI69166164
asS'SV1005'
p7
(lp8
I50032418
aI68261417
asS'Captain Democracy'
p9
(lp10
I56652713
asS'Jim'
p11
(lp12
I59415225
aI54420722
aI25753896
aI16209675
aI62349319
aI68738541
aI61192773
aI4717351
aI61049
aI66908967
aI70245222
aI70505568
aI50084622
aI55926864
aI55669042
aI40635317
aI37872855
aI55145579
aI64883112
aI59826561
aI41524781
aI69548166
aI33777317
aI63642712
aI68845412
aI68507376
aI58439161
aI66584927
aI62529657
aI19159731
aI57198362
aI54978458
aI488094
aI26874562
aI61677637
aI66000815
aI34032667
aI46147716
asS'pkbormes'
p13
(lp14
I56852144
asS'AH2'
p15
(lp16
I15282232
asS'Andres'
p17
(lp18
I68715940
aI65826583
asS'soccermum'
p19
(lp20
I62268742
asS'john l bailey'
p21
(lp22
I67679748
aI67706508
asS'Ray Finch'
p23
(lp24
I65448550
asS'Eve A'
p25
(lp26
I60914731
asS'ROBERT DEL ROSSO'
p27
(lp28
I61041588
asS'ULtraliberal'
p29
(lp30
I56907400
asS'William'
p31
(lp32
I3725974
aI59349245
aI5328556
aI13800483
aI68053322
aI4940558
aI66192529
aI73127245
aI68502618
aI65058116
aI48676227
asS'Kenan Porobic'
p33
(lp34
I67801059
asS'josie8'
p35
(lp36
I58767468
asS'stasnovikov'
p37
(lp38
I27881518
asS'George S'
p39
(lp40
I42127981
asS'Katie 1'
p41
(lp42
I66289695
asS'Dan'
p43
(lp44
I69587240
aI61441080
aI18281429
aI14126691
aI67901389
aI13231377
aI53631173
aI42381259
aI67487817
aI32250106
aI3269808
aI56886500
aI23819643
aI131583
aI65313527
aI64357129
aI28815347
aI67188713
aI28853455
aI68920130
aI31924006
asS'WoodsBeldau'
p45
(lp46
I3550868
asS'Frank DeCoster'
p47
(lp48
I25025369
asS'Madigan'
p49
(lp50
I21052883
asS'Jose Pardinas'
p51
(lp52
I38396525
asS'Beantownah'
p53
(lp54
I36539108
asS'Kevin Brock'
p55
(lp56
I59890819
asS'CityBumpkin'
p57
(lp58
I60909833
asS'Steve M'
p59
(lp60
I25924319
aI46941185
asS'illampu'
p61
(lp62
I60841711
asS'Van Snyder'
p63
(lp64
I71941740
asS'Robert McConnell'
p65
(lp66
I65320056
aI28296081
asS'rob'
p67
(lp68
I11509717
aI69583165
asS'Kevin J'
p69
(lp70
I69581890
asS'dontbelieve'
p71
(lp72
I68867293
asS'Anna G'
p73
(lp74
I36991387
asS'TheManOnTheStreet'
p75
(lp76
I41039768
asS'Daniel Yakoubian'
p77
(lp78
I6542014
asS"Bulgakov's Cat"
p79
(lp80
I67115499
asS'Porfirio Rubirosa'
p81
(lp82
I63236076
asS'Banicki'
p83
(lp84
I65570634
asS'alexander hamilton'
p85
(lp86
I37012629
asS'Simon Sez'
p87
(lp88
I2838061
asS'GG'
p89
(lp90
I10456901
aI69360935
aI63462179
aI68977619
asS'iux'
p91
(lp92
I51248751
asS'VsB'
p93
(lp94
I57489269
asS'MJR'
p95
(lp96
I32666114
aI50008227
asS'Henry'
p97
(lp98
I10130838
aI67257596
aI71379424
aI22506855
aI56412416
aI67326891
aI68183779
aI61873984
aI68753623
aI68717338
aI22039557
aI66272146
aI68897998
asS'Xavier'
p99
(lp100
I26664033
aI60052942
asS'GL'
p101
(lp102
I60004510
aI68212487
asS'End-the-spin'
p103
(lp104
I60898027
asS'steve'
p105
(lp106
I71147267
aI61572216
aI9239366
aI51468090
aI59132518
aI56305928
asS'Thomas'
p107
(lp108
I56370483
aI2147576
aI66724463
aI59239960
aI70660921
aI63573784
aI58777478
aI60834572
asS'Montreal Moe'
p109
(lp110
I62945206
asS'W8post'
p111
(lp112
I58528633
asS'Ezequiel'
p113
(lp114
I68879613
asS'wsf'
p115
(lp116
I58226141
asS'Vladimir Slaviansky'
p117
(lp118
I58108967
asS'CDC'
p119
(lp120
I29699545
asS'Enobarbus37'
p121
(lp122
I7209124
asS'donald surr'
p123
(lp124
I33949435
asS'Pavel'
p125
(lp126
I73093259
aI63106968
aI67684033
aI68881050
aI68951369
asS'Chickadee'
p127
(lp128
I50228091
asS'blackmamba'
p129
(lp130
I17374907
asS'Gene G.'
p131
(lp132
I2343801
asS'Paul'
p133
(lp134
I56767034
aI58975167
aI2021524
aI69841700
aI15857453
aI9907465
aI51180606
aI30538946
aI57715665
aI8382920
aI1184127
aI68982504
aI66708666
aI68984524
aI15939847
aI19186998
aI21499712
aI5177563
aI50438342
aI63149265
aI52694621
aI63627811
aI41446331
aI57089408
aI40323909
aI29830913
aI3423843
aI69010040
aI56247136
aI65780598
aI66345097
aI52929642
aI962171
aI61532907
aI59997743
aI58781013
aI53460133
aI65906646
aI42756288
aI34677113
aI46822429
aI31935556
aI68930213
aI57691072
aI66034973
aI63181426
aI55184077
aI51131595
aI27711787
aI57647299
asS'George'
p135
(lp136
I54229345
aI68571804
aI68135015
aI42302232
aI63349274
aI68849112
aI13652084
aI60363055
aI62704
aI63550829
aI71341266
aI27197556
aI44991903
aI70888258
aI60685100
aI66918786
aI22570592
aI66623325
aI50101336
asS'Kevin'
p137
(lp138
I72222489
aI67934967
aI56740202
aI72306916
aI1337370
aI68674234
aI68932173
aI68987002
aI60721580
aI47567501
aI35874665
aI67186188
aI36213608
aI12285180
aI61280961
aI59035964
aI18044107
aI67274080
asS'bd'
p139
(lp140
I49251224
asS'bill'
p141
(lp142
I48679350
aI65855334
aI54468732
aI68102504
aI66910614
aI59851153
asS'Arnold Lockshin'
p143
(lp144
I68704666
asS'Howard'
p145
(lp146
I19290883
aI51272814
aI50905877
aI55104713
aI6835895
aI25241068
aI51718310
asS'Sage'
p147
(lp148
I32798901
asS'kakorako'
p149
(lp150
I60139739
asS'ted'
p151
(lp152
I67711219
aI67833400
aI68854242
asS'Ecce Homo'
p153
(lp154
I21639730
asS'W.A. Spitzer'
p155
(lp156
I63423891
asS'Matthew'
p157
(lp158
I64481708
aI64356649
aI67524014
aI69584575
aI60937882
asS'Ronald Cohen'
p159
(lp160
I47513080
asS'Rich'
p161
(lp162
I66284214
aI46944360
aI28853829
aI53323404
aI73091376
aI67193439
aI55504705
aI63244774
aI65419425
aI23983274
aI1016228
aI55418201
asS'JE'
p163
(lp164
I34604079
asS'Syed Abbas'
p165
(lp166
I58823962
asS'Michael S'
p167
(lp168
I5840605
aI1995239
asS'DanGood'
p169
(lp170
I46081538
asS'Carl Ian Schwartz'
p171
(lp172
I34805902
asS'victor'
p173
(lp174
I38360696
aI36715409
aI69588164
asS'Matt Vought'
p175
(lp176
I42812527
asS'Yoandel'
p177
(lp178
I63549582
asS'Campesino'
p179
(lp180
I27864640
asS'Vexray'
p181
(lp182
I46980601
asS'Dr. Abramovich'
p183
(lp184
I30376674
asS'mt'
p185
(lp186
I65526003
asS'Bruce'
p187
(lp188
I65041229
aI66367373
aI32411948
aI60035633
aI71209548
aI63511111
aI58146393
aI18668529
aI65264336
aI6152763
aI13135251
aI10196327
aI69225009
aI63670593
aI16843906
aI15631421
aI3428723
aI106997
aI6853286
asS'Indrid Cold'
p189
(lp190
I2368644
asS'Alan'
p191
(lp192
I57323675
aI50949245
aI56362877
aI62801476
aI50624102
aI57620454
aI69764959
aI41313037
aI66174555
aI66677827
aI68084207
asS'abo'
p193
(lp194
I27421933
asS'Uuuu'
p195
(lp196
I67492390
asS'Cooler'
p197
(lp198
I68872544
asS'JerseyJeff'
p199
(lp200
I57859529
asS'norman pollack'
p201
(lp202
I11983749
asS'Rick'
p203
(lp204
I66119578
aI41960332
aI24062445
aI39367930
aI46907350
aI69542261
aI65346123
aI62176244
aI25932782
aI1977509
aI54487346
aI52261992
aI20558837
aI63649463
asS'Anna'
p205
(lp206
I56586470
aI68894141
aI72906828
aI71266200
aI35807771
aI52393387
aI69716452
aI69388415
asS'alan brown'
p207
(lp208
I68841627
asS'Miss Ley'
p209
(lp210
I58223613
asS'serban'
p211
(lp212
I45637812
asS'rebecca1048'
p213
(lp214
I13387144
asS'Jesse Marioneaux'
p215
(lp216
I70197753
asS'John Edelmann'
p217
(lp218
I50185840
asS'Lavrentii'
p219
(lp220
I18979168
asS'C.O.'
p221
(lp222
I23805319
asS'Hugh CC'
p223
(lp224
I59421588
asS'Anatoliy Asanov'
p225
(lp226
I63266453
asS'Susan'
p227
(lp228
I72132503
aI56780855
aI30844621
aI62222075
aI56644005
aI63458072
aI2903907
aI4770220
aI58144040
aI23394662
asS'Charlie'
p229
(lp230
I56386979
aI3215001
aI67806267
aI19359950
aI39538158
aI5234469
aI65188340
aI46563764
aI57014335
asS'DSS'
p231
(lp232
I71240928
aI53320666
asS'Reva'
p233
(lp234
I31149213
asS'jpduffy3'
p235
(lp236
I36458645
asS'Uzi Nogueira'
p237
(lp238
I59960191
asS'Koobface'
p239
(lp240
I69372503
asS'decipher'
p241
(lp242
I66792657
asS'Daniel DeGrandpre'
p243
(lp244
I57023244
asS'TheOwl'
p245
(lp246
I57702801
asS'Andrew Arato'
p247
(lp248
I21928801
asS'lou andrews'
p249
(lp250
I67230750
asS'change'
p251
(lp252
I57771639
asS'abie normal'
p253
(lp254
I67403260
asS'MG'
p255
(lp256
I58753141
aI59758826
aI22806540
aI17416341
asS'Rod'
p257
(lp258
I67491063
asS'Evgeny'
p259
(lp260
I69516067
aI69722466
aI68906229
asS'MC'
p261
(lp262
I6518565
aI47136994
aI71174067
aI52055588
asS'MB'
p263
(lp264
I13749563
aI24016080
aI54385678
asS'ML'
p265
(lp266
I63343630
asS'Mary Elizabeth'
p267
(lp268
I66605216
asS'One Planet'
p269
(lp270
I69180069
asS'MT'
p271
(lp272
I63105499
asS'Norman Pollack'
p273
(lp274
I11983749
asS'MS'
p275
(lp276
I18132070
aI46890476
aI68906216
aI39573247
asS'NeverLift'
p277
(lp278
I6998114
asS'Sonny Pitchumani'
p279
(lp280
I61811374
asS'Robert Jennings'
p281
(lp282
I16533421
asS'bob parno'
p283
(lp284
I56183979
asS'Devin'
p285
(lp286
I58070664
asS'FS'
p287
(lp288
I25068562
asS'Sunny 20'
p289
(lp290
I58265050
asS'WestSider'
p291
(lp292
I46916332
asS'Ariel'
p293
(lp294
I56290072
aI26416941
asS'Jp'
p295
(lp296
I1948827
aI38558242
asS'Robert'
p297
(lp298
I1416088
aI68847402
aI52647488
aI66788641
aI72288831
aI22937368
aI72122708
aI25117201
aI9097219
aI58228060
aI54176795
aI31633759
aI20287031
aI73126635
aI35599381
aI30177038
aI62875549
aI69284243
aI59956273
aI6830045
aI2668932
aI25783728
aI53856899
aI9469094
aI51584272
aI57346955
aI32836596
aI65138816
aI66105529
aI68899447
aI67777981
aI23972425
aI31973954
aI25150307
aI69378714
aI63437252
aI8236310
aI48010753
aI68930157
aI68370438
aI54017096
asS'Nick'
p299
(lp300
I71884901
aI25825746
aI61788921
aI15539917
aI68966682
aI70545591
aI68153446
aI2264383
aI67674517
aI69624033
aI66135331
aI67215031
aI68953241
aI68953777
aI26418162
asS'H. almost sapiens'
p301
(lp302
I49126225
asS'Alberto'
p303
(lp304
I48803653
aI7145030
asS'Tom'
p305
(lp306
I63402555
aI68276149
aI46888442
aI31311537
aI23394420
aI63544269
aI67523250
aI14117732
aI56166627
aI6396074
aI60004333
aI62645820
aI55249247
aI66576943
aI4931512
aI53829402
aI13456861
aI69528152
aI26704978
aI34169838
aI64460754
aI60159348
aI65691084
aI68894032
aI56836027
aI20066059
aI69494736
aI10360498
aI50918735
aI59991877
aI63543551
aI683849
aI48129874
aI1256878
aI66556667
aI69106872
aI56206813
aI8568452
aI68889545
aI62144668
aI1941261
aI61606201
aI50768270
aI41842128
aI52286936
aI51185982
aI58750438
aI48048813
aI72385551
asS'Publicus'
p307
(lp308
I65188575
asS'Henryk'
p309
(lp310
I60224755
asS'John Meakin'
p311
(lp312
I55679142
asS'Rita'
p313
(lp314
I47349721
aI17468725
asS'JUD'
p315
(lp316
I53517784
asS'parik'
p317
(lp318
I67359781
asS'Bob Van Noy'
p319
(lp320
I32785868
asS'Uga Muga'
p321
(lp322
I67896430
aI67605265
asS'AKLady'
p323
(lp324
I60702192
asS'Paul deLespinasse'
p325
(lp326
I54540906
asS'valentina'
p327
(lp328
I69153644
asS'Ian Maitland'
p329
(lp330
I4057582
asS'JSH'
p331
(lp332
I60277378
asS'BSR'
p333
(lp334
I67888405
asS'Marek S'
p335
(lp336
I72306960
asS'Fritz'
p337
(lp338
I43199033
aI28495436
asS'David in Toledo'
p339
(lp340
I30268917
asS'andy'
p341
(lp342
I57054583
aI67548473
aI68922367
asS'Robert Coane'
p343
(lp344
I30197783
asS'Serge'
p345
(lp346
I49506240
aI71380540
aI18095050
aI68877837
aI59378309
asS'Richard Navas'
p347
(lp348
I14280034
asS'Ben'
p349
(lp350
I1690947
aI67059303
aI73100672
aI29254699
aI53952214
aI71207752
aI19604890
aI60265537
aI69392388
aI50887149
aI69911053
aI19631077
aI69545850
aI67775314
aI68820780
aI68904769
aI65468654
aI65542352
asS'anthony weishar'
p351
(lp352
I30818361
asS'beholder'
p353
(lp354
I58815476
asS'Victor Val Dere'
p355
(lp356
I31176845
asS'augustborn'
p357
(lp358
I55555222
asS'Laughingdragon'
p359
(lp360
I42787874
asS'Taylor'
p361
(lp362
I26531652
asS'Roger'
p363
(lp364
I68874436
aI66537945
aI23129280
aI59647806
aI14232749
aI26432139
aI49697426
aI31649497
aI63293357
asS'V'
p365
(lp366
I70058668
aI71155908
aI15260073
aI70504855
aI23078829
asS'sammy zoso'
p367
(lp368
I58556387
asS'coale johnson'
p369
(lp370
I59172341
asS'Puiblius'
p371
(lp372
I51620735
asS'late crow'
p373
(lp374
I20789980
asS'HJAC'
p375
(lp376
I67687760
asS'Cornflower Rhys'
p377
(lp378
I63664071
asS'Tim'
p379
(lp380
I67324976
aI58301211
aI16004390
aI71930530
aI62970754
aI50380844
aI55109371
aI68194567
aI68924336
aI69468830
aI68865412
aI58361123
asS'jdd'
p381
(lp382
I10920513
asS'Fawles Rowke'
p383
(lp384
I65529190
asS'r. karch'
p385
(lp386
I33229477
asS'SW'
p387
(lp388
I61718359
aI66288403
aI5681302
asS'SU'
p389
(lp390
I34081583
asS'cat'
p391
(lp392
I36836164
asS'niobium'
p393
(lp394
I48968029
asS'Rohit'
p395
(lp396
I69181997
aI64999573
asS'SC'
p397
(lp398
I49506240
aI34671748
aI27363762
aI60405723
asS'SB'
p399
(lp400
I57489269
aI9271683
aI69156508
asS'SA'
p401
(lp402
I66496317
aI31191119
aI6745782
asS'wasp'
p403
(lp404
I68458812
asS'Owat Agoosiam'
p405
(lp406
I2738562
asS'Delicate Genius'
p407
(lp408
I72219934
asS'Pablo'
p409
(lp410
I71586700
aI57018011
aI47122625
asS'whoandwhat'
p411
(lp412
I68915151
asS'William Verick'
p413
(lp414
I7802697
asS'G.P.'
p415
(lp416
I9629775
asS'bob h'
p417
(lp418
I21361193
asS'Jerry'
p419
(lp420
I67183
aI149355
aI53454343
aI49535314
aI58072650
aI57543155
aI37818422
aI46026538
aI58655824
aI19184950
asS'NYChap'
p421
(lp422
I67579868
asS'Brian'
p423
(lp424
I58592506
aI17972509
aI51857970
aI21445877
aI59859488
aI60063673
aI71762535
aI65293147
aI52924796
aI72976352
aI66321274
aI71281568
aI56087865
aI34473855
aI55483289
aI2946179
aI69584921
aI18774302
aI65279003
aI55407643
aI58051133
aI62012356
asS'MoCrash'
p425
(lp426
I34274306
asS'Jamil M Chaudri'
p427
(lp428
I17547424
asS'CAF'
p429
(lp430
I63536328
asS'Ted Pikul'
p431
(lp432
I25886834
asS'Joseph John Amato'
p433
(lp434
I16771238
asS'Don Ludovic'
p435
(lp436
I61069126
asS'LG'
p437
(lp438
I61548669
aI56277617
aI20823
asS'smath'
p439
(lp440
I25077076
asS'Raymond'
p441
(lp442
I4624047
aI65832113
aI20573143
asS'carlson74'
p443
(lp444
I35852962
asS'Realist'
p445
(lp446
I1425920
aI14250901
aI49260903
aI61122968
aI9436923
aI69157468
asS'mike'
p447
(lp448
I69240832
aI34756900
aI22496033
aI12535162
aI14891779
aI38853532
aI62706044
asS'Impedimentus'
p449
(lp450
I67172114
asS'Afortor'
p451
(lp452
I68142643
asS'Ralph Braskett'
p453
(lp454
I43466164
asS'Ivan Z'
p455
(lp456
I68889489
asS'LW'
p457
(lp458
I46948419
aI10827746
asS'Jack'
p459
(lp460
I20119230
aI60773003
aI61997283
aI10722105
aI69540495
aI1088956
aI71928984
aI21324411
aI69443130
aI6352804
aI69663174
aI67726670
aI31972387
aI7326466
aI15507267
aI60881844
aI69065515
aI28610390
aI67317954
aI68444784
aI66803921
asS'Pierre Anonymot'
p461
(lp462
I59435442
asS'Peter C'
p463
(lp464
I63455559
aI46927456
aI45843412
asS'MPS'
p465
(lp466
I32564368
asS'A'
p467
(lp468
I49567480
aI68979742
aI17871407
aI67096672
aI63750273
asS"Molly O'Neal"
p469
(lp470
I71994083
aI67307767
asS'Don'
p471
(lp472
I65769319
aI67229866
aI59067142
aI2145904
aI47191842
aI58296265
aI804060
aI69516274
aI55797295
aI31576727
aI68127159
asS'Butch Burton'
p473
(lp474
I55717377
asS'Francois Labelle'
p475
(lp476
I63366843
asS'Justice Holmes'
p477
(lp478
I26251732
asS'Joel'
p479
(lp480
I16559214
aI617387
aI55993126
asS'Girish Kotwal'
p481
(lp482
I69024476
asS'Will'
p483
(lp484
I65201286
aI55034964
aI2949227
aI63504236
aI65254264
aI65379172
aI64070347
aI33857179
aI2999785
asS'larsvanness'
p485
(lp486
I56497683
asS'Jo Boost'
p487
(lp488
I33050428
asS'Clausewitz'
p489
(lp490
I25435678
asS'R. R.'
p491
(lp492
I13105801
asS'Martin'
p493
(lp494
I47907757
aI57967327
aI69699221
aI5940609
aI56585262
aI56063831
aI29034998
aI15626531
aI56202046
asS'Lisa'
p495
(lp496
I12515143
aI47158844
aI60766509
aI60572107
asS'Carlos'
p497
(lp498
I53841114
aI68977610
aI27065920
aI14332090
aI54094913
asS'Southern Boy'
p499
(lp500
I45428638
asS'mford'
p501
(lp502
I46918499
asS'buzzy'
p503
(lp504
I47025583
asS'Keith Ferlin'
p505
(lp506
I66904355
asS'toom'
p507
(lp508
I7449791
asS'mmpack'
p509
(lp510
I13816094
asS'Socrates'
p511
(lp512
I51878992
asS'Matty'
p513
(lp514
I15290947
aI64336135
asS'Eric'
p515
(lp516
I46926660
aI66447991
aI18818464
aI68637315
aI32357594
aI36831321
aI26439378
aI19642075
aI12574292
aI13898785
aI53526988
aI69235720
aI62189944
aI33178447
aI45164870
aI64914741
aI66997538
asS'Denis'
p517
(lp518
I69003797
aI71181435
aI70278781
aI70279799
aI69592049
aI69593975
aI35869625
aI69381531
aI69002602
asS'Dharma101'
p519
(lp520
I66700952
asS'Notafan'
p521
(lp522
I51283311
asS'Angelica'
p523
(lp524
I45607560
asS'Frank 95'
p525
(lp526
I23795156
asS'Dr.J Boost'
p527
(lp528
I33050428
asS'Jay'
p529
(lp530
I58641862
aI28636471
aI8640645
aI69362642
aI65116727
aI54159394
aI6252999
aI58210091
aI61718707
aI12696762
aI60674310
aI19656018
aI45588890
aI68220305
aI69012124
aI63500738
asS'Sally DeCapite'
p531
(lp532
I65654518
asS'Two Can Sam'
p533
(lp534
I62000303
asS'Evangeline'
p535
(lp536
I60914731
asS'Darker'
p537
(lp538
I68588887
asS'SAK'
p539
(lp540
I41866478
asS'JT FLORIDA'
p541
(lp542
I37343100
asS'lb'
p543
(lp544
I55188455
asS'RS'
p545
(lp546
I66742458
aI69205075
aI61729996
aI30436091
aI46991485
aI50085337
asS'JRMW'
p547
(lp548
I64300662
asS'Anton Yakovlev'
p549
(lp550
I68983302
asS'note4U'
p551
(lp552
I68137148
asS'Quandry'
p553
(lp554
I57968201
asS'Here'
p555
(lp556
I57595872
asS'George Hoffman'
p557
(lp558
I63262708
asS'Wesley'
p559
(lp560
I57655433
asS'judgeroybean'
p561
(lp562
I20554553
asS'yucan'
p563
(lp564
I48943425
asS'RB'
p565
(lp566
I64890360
aI39478622
aI33635691
aI63318845
aI8614189
aI13798119
aI37945735
asS'HonorB14U'
p567
(lp568
I56260603
asS'northlander'
p569
(lp570
I15943104
asS'R36'
p571
(lp572
I64999573
asS'Stephen J Johnston'
p573
(lp574
I7794510
asS'Eugah'
p575
(lp576
I63750499
asS'hadarmen'
p577
(lp578
I34081583
asS'Michael'
p579
(lp580
I56617856
aI72241250
aI52699596
aI69783909
aI69882920
aI37031852
aI67804263
aI47479200
aI67080801
aI58553253
aI61243103
aI51037369
aI60697579
aI54615828
aI48308107
aI44358790
aI19882358
aI1853844
aI67217116
aI48534093
aI5340020
aI27229308
aI50512515
aI69092538
aI69371368
aI65936855
aI18742007
aI60251675
aI64752352
aI67566275
aI65226505
aI67945449
aI60652754
aI64779148
aI63011895
aI66647688
aI63692240
aI33364360
aI58939057
aI34740606
asS'L'
p581
(lp582
I53106698
aI46850779
aI45240312
aI58314766
asS'pjc'
p583
(lp584
I62565584
asS'DW'
p585
(lp586
I26414746
aI57529183
asS'Adam'
p587
(lp588
I34810170
aI66616171
aI66311476
aI54533647
aI37791973
aI27491561
aI73148786
aI67662459
aI31814259
aI16148058
aI69301522
asS'R.'
p589
(lp590
I13105801
aI31512774
asS'Iryna'
p591
(lp592
I68734777
aI71147031
aI69579352
asS'justin sayin'
p593
(lp594
I68563705
asS'Guido'
p595
(lp596
I31336223
asS'Alcibiades'
p597
(lp598
I68211266
asS'Big Al'
p599
(lp600
I66885489
asS'alex'
p601
(lp602
I57007824
aI65913279
aI69828284
aI25549573
asS'Sam'
p603
(lp604
I68052256
aI6600042
aI989786
aI69754204
aI57224962
aI493847
aI59190233
aI68747296
aI20158277
aI698533
asS'Susan R'
p605
(lp606
I60528950
asS'james'
p607
(lp608
I66222588
asS'DCBarrister'
p609
(lp610
I42850188
asS'IPI'
p611
(lp612
I21532731
asS'PacNWGuy'
p613
(lp614
I68263038
asS'Claus Gehner'
p615
(lp616
I58268518
asS'Judyw'
p617
(lp618
I22452103
asS'Rocketscientist'
p619
(lp620
I58350124
asS'Gary'
p621
(lp622
I43061552
aI60007356
aI59277781
aI46902627
aI22334104
aI66639740
aI59800817
aI66559045
aI57595872
aI58187185
aI68877670
aI56163115
aI25181853
aI34603488
aI60723588
asS'Swatter'
p623
(lp624
I172496
asS'Arnie'
p625
(lp626
I27523743
asS'Ray'
p627
(lp628
I69113296
aI8661728
aI64595599
aI1303596
aI4039053
aI2764535
aI37413461
aI68249774
aI38349783
asS'ReaderNYC'
p629
(lp630
I68872544
asS'Robert Eller'
p631
(lp632
I19028990
asS'Roger Binion'
p633
(lp634
I30690106
asS'oldbat89'
p635
(lp636
I64943317
asS'c.k.chen'
p637
(lp638
I32600556
asS'Rose'
p639
(lp640
I68872544
aI51115686
aI68850346
aI3693550
aI40223854
asS'Cormac'
p641
(lp642
I13596496
asS'soxared04/07/13'
p643
(lp644
I66332358
asS'John Ryan'
p645
(lp646
I65255710
asS'Kevin Cahill'
p647
(lp648
I52114961
asS'Joseph'
p649
(lp650
I69720304
aI46577552
aI13838808
aI71102448
aI55874925
aI48183969
aI28144361
aI11217349
aI43200664
aI69717782
aI69576815
aI68904902
aI69170783
aI86522
asS'Vincent Amato'
p651
(lp652
I7262022
asS'Charles W.'
p653
(lp654
I58825769
asS'ez'
p655
(lp656
I60552418
asS'Mike Munk'
p657
(lp658
I67462574
asS'Kenell Touryan'
p659
(lp660
I64585082
asS'sandy'
p661
(lp662
I60784607
asS'AACNY'
p663
(lp664
I26671491
asS'newscast 2'
p665
(lp666
I27853842
asS'Ken'
p667
(lp668
I30329540
aI66047047
aI65780502
aI42831541
aI34089048
aI26793520
aI32655219
aI1189128
aI64945098
aI61038885
aI50820444
asS'Luke W'
p669
(lp670
I62141807
asS'archer717'
p671
(lp672
I53949914
aI67300340
asS'Popsiq'
p673
(lp674
I49520284
asS'Herman Ross'
p675
(lp676
I71184711
asS'djg'
p677
(lp678
I20122764
asS'Ihor Broda'
p679
(lp680
I58399178
asS'M. J. Shepley'
p681
(lp682
I43096613
asS'PogoWasRight'
p683
(lp684
I22956012
asS'bkay'
p685
(lp686
I66746113
asS'qcell'
p687
(lp688
I60574091
asS'Excellency'
p689
(lp690
I63808206
asS'Judy R'
p691
(lp692
I20548651
asS'GLK'
p693
(lp694
I69680696
asS'Joe'
p695
(lp696
I58876174
aI73085825
aI60345243
aI37111127
aI39500640
aI8021059
aI68743141
aI15470296
aI52468330
aI68870328
aI62265291
aI40763043
aI69287141
aI47633259
aI67593496
aI60178783
aI69373467
aI47071251
aI31679310
aI52021003
aI67632655
asS'skeptonomist'
p697
(lp698
I45652654
asS'Richard Luettgen'
p699
(lp700
I47123844
asS'trblmkr'
p701
(lp702
I13483611
asS'Jon'
p703
(lp704
I41260666
aI63847610
aI32113497
aI67520729
aI69585413
aI68258464
aI26638389
aI8425764
aI47699120
asS'D.A.Oh.'
p705
(lp706
I57609397
asS'Marusa'
p707
(lp708
I29625334
asS'Seldoc'
p709
(lp710
I21152721
asS'Daniel Hoffman'
p711
(lp712
I59034020
asS'G-man'
p713
(lp714
I63845294
asS'Alexander  K.'
p715
(lp716
I50360884
asS'Robert Weller'
p717
(lp718
I67386369
asS'Clark M. Shanahan'
p719
(lp720
I39490855
asS'Steve Sailer'
p721
(lp722
I63984680
asS'Judy'
p723
(lp724
I67998410
aI55523050
aI46454836
asS'Eugene Gorrin'
p725
(lp726
I55726510
asS'Permyakov P.A.'
p727
(lp728
I60930336
asS'George Xanich'
p729
(lp730
I60835235
asS'Tesnik'
p731
(lp732
I63620519
asS'VP'
p733
(lp734
I57187407
aI28676819
asS'Kojo Resse'
p735
(lp736
I61284004
asS'simzap'
p737
(lp738
I5290173
asS'LMJr'
p739
(lp740
I60765932
asS'Juris'
p741
(lp742
I48676165
asS'Jim Michie'
p743
(lp744
I45232068
asS'observer48'
p745
(lp746
I68458949
asS'Ed'
p747
(lp748
I69095761
aI73079908
aI66450783
aI69048416
aI60531313
aI1843543
aI66458333
aI50727767
aI55384043
aI62450066
aI6826189
aI66931636
aI65859043
aI57277504
aI5811725
aI59149503
aI66953446
asS'huth'
p749
(lp750
I56941319
asS'Vin'
p751
(lp752
I14195106
asS'Lawson'
p753
(lp754
I9520733
asS'david'
p755
(lp756
I984686
aI71929934
aI48544196
aI56320174
aI14141005
aI25719306
asS'John LeBaron'
p757
(lp758
I48751578
asS'Stephen Ebert'
p759
(lp760
I69266633
asS'Malice'
p761
(lp762
I55052464
asS'FreeOregon'
p763
(lp764
I67791470
asS'Sandy'
p765
(lp766
I66060985
aI41984656
aI67632354
aI58475825
asS'Joshua Schwartz'
p767
(lp768
I53713809
asS'Yoda'
p769
(lp770
I64671572
asS'Jason Bourne'
p771
(lp772
I68981037
asS'mishka'
p773
(lp774
I19097118
asS'art josephs'
p775
(lp776
I66002412
asS'Danram'
p777
(lp778
I56370612
asS'David L, Jr.'
p779
(lp780
I66889060
asS'loveman0'
p781
(lp782
I17203217
asS'Independent North Caucasus'
p783
(lp784
I68937985
asS'Memnon'
p785
(lp786
I31962443
asS'Vladolf Putler'
p787
(lp788
I35081619
asS'Winthrop Staples'
p789
(lp790
I46047020
asS'Citizen'
p791
(lp792
I34443259
aI49648210
aI45368958
aI43507596
asS'Lou H'
p793
(lp794
I56484924
asS'george'
p795
(lp796
I65396387
aI53970481
aI67759892
asS'Amy'
p797
(lp798
I32700530
aI60099421
asS'Howard64'
p799
(lp800
I3056677
asS'iwaskow'
p801
(lp802
I63869948
asS'Susiejoe'
p803
(lp804
I58050839
asS'Kareena'
p805
(lp806
I64779973
asS'Grant'
p807
(lp808
I62507143
aI66216280
asS'Stephen Miller'
p809
(lp810
I65598050
asS'Posa'
p811
(lp812
I2430225
asS'Nicolas Berger'
p813
(lp814
I15259706
asS'Jon Davis'
p815
(lp816
I41260666
asS'magicisnotreal'
p817
(lp818
I60215558
asS'Larry'
p819
(lp820
I22896385
aI59689153
aI68586711
aI28220645
aI48585591
aI56817889
aI56245122
aI7925070
aI6348777
aI30734918
asS'Sophia'
p821
(lp822
I15209869
aI21242913
aI55596146
aI69581194
asS'Sarah'
p823
(lp824
I53959348
aI68135112
asS'caaps02'
p825
(lp826
I68921631
asS'john'
p827
(lp828
I20463728
aI55717679
aI67536315
aI28749258
aI58948826
aI50333908
aI73140097
aI25038134
aI27334865
aI59241380
asS'cashtext4all.com'
p829
(lp830
I65675680
asS'Alexander'
p831
(lp832
I71146808
aI68985146
aI69828469
aI69516876
aI69585984
aI68968811
aI67338478
aI69593933
aI69593784
aI69691458
aI69717409
aI69495681
aI68894894
asS'Svetlana'
p833
(lp834
I68896699
asS'Jiminy'
p835
(lp836
I8746873
asS'Patrick'
p837
(lp838
I17940785
aI44287968
aI4941251
aI72306792
aI36751665
aI68199080
aI58791039
aI3084816
aI23573532
aI72436042
aI42319440
aI69489247
aI69581795
aI58443978
aI66667925
asS'tom'
p839
(lp840
I19971751
aI71145611
aI66481273
aI56036194
aI65026475
aI66615161
asS'Jeff Pardun'
p841
(lp842
I57859529
asS'66hawk'
p843
(lp844
I52952247
asS'alan'
p845
(lp846
I20469121
aI57342770
asS'Alan MacDonald'
p847
(lp848
I135450
asS'Katerina'
p849
(lp850
I68748747
asS'R'
p851
(lp852
I63299316
aI47815795
aI26402880
aI59848681
asS'bobw'
p853
(lp854
I12932061
asS'Kurt'
p855
(lp856
I55563058
asS'Gene'
p857
(lp858
I62635867
aI41822569
aI68659293
aI14017445
aI55203750
aI59050629
asS'Georg Witke'
p859
(lp860
I31397801
asS'Common Sense'
p861
(lp862
I21142372
aI9370
asS'ed g'
p863
(lp864
I57014129
asS'KB'
p865
(lp866
I65816625
aI70882517
aI62503680
aI33783718
aI60241505
aI34830618
aI67942756
aI63508448
asS'Myliugamta'
p867
(lp868
I65709122
asS'24b4Jeff'
p869
(lp870
I59357171
asS'bergamo'
p871
(lp872
I20256462
asS'Doug Tarnopol'
p873
(lp874
I30654938
asS'birddog'
p875
(lp876
I62423430
asS'Gennady'
p877
(lp878
I61891061
asS'KJ'
p879
(lp880
I47215171
asS'conscious'
p881
(lp882
I63765088
asS'Victor'
p883
(lp884
I763106
aI343996
aI22940104
aI68854807
aI3524895
aI48839921
aI67101560
aI69580505
aI73126593
aI63658640
aI69020896
aI62909437
asS'Kalidan'
p885
(lp886
I65362458
asS'KP'
p887
(lp888
I21252783
asS'nobrainer'
p889
(lp890
I13298471
asS'harry'
p891
(lp892
I18312178
asS'Peter'
p893
(lp894
I69043
aI59320681
aI55732997
aI57584213
aI7779131
aI14706702
aI28295510
aI55994227
aI68759284
aI71772033
aI32807455
aI69579892
aI68882423
aI25220622
aI69480295
aI33631966
aI39300684
aI71530712
aI55019792
aI58589632
aI58478940
aI52009891
aI30428673
aI17375292
aI66363075
aI15347681
aI25366203
aI5902813
aI19653421
aI16687485
aI26261835
aI47361591
aI73145170
asS'Jerzy Najdowski'
p895
(lp896
I68825183
asS'rusalka'
p897
(lp898
I49901537
asS'Cassandra'
p899
(lp900
I36188900
aI937966
asS'nikolai'
p901
(lp902
I69529820
asS'Oliver'
p903
(lp904
I65683778
aI25512658
aI19518046
asS'Pat'
p905
(lp906
I61052665
aI1536560
aI52570571
aI48878017
aI34204226
asS'Been There, Done That'
p907
(lp908
I68918886
asS'Diogenes'
p909
(lp910
I38816970
aI45104504
asS'Robin Foor'
p911
(lp912
I88625
asS'Swans21'
p913
(lp914
I26203284
asS'Chris M'
p915
(lp916
I21994563
asS'Casual Observer'
p917
(lp918
I21896305
asS'Hendrik E. Sadi'
p919
(lp920
I63541013
asS'Marcel'
p921
(lp922
I70947731
asS'Gert'
p923
(lp924
I66389336
asS'taopraxis'
p925
(lp926
I59688450
asS'muezzin'
p927
(lp928
I66520383
asS'Ian stuart'
p929
(lp930
I36478618
asS'Patrick, aka Y.B.Normal'
p931
(lp932
I44287968
asS'Independent'
p933
(lp934
I68781221
aI48047245
aI65181547
asS'resipsa'
p935
(lp936
I60570749
asS'Christian'
p937
(lp938
I9623775
aI60081049
aI65234578
aI8264504
aI72924594
asS"Murphy's Law"
p939
(lp940
I36173648
asS'Jim Steinberg'
p941
(lp942
I29629210
asS'Mark Shyres'
p943
(lp944
I63379259
asS'Uziel'
p945
(lp946
I59960191
asS'WimR'
p947
(lp948
I65143923
asS'Marv Raps'
p949
(lp950
I38210046
asS'Anthony N'
p951
(lp952
I55922401
asS'RPB'
p953
(lp954
I65750078
asS'RPD'
p955
(lp956
I60175026
asS'cyrano'
p957
(lp958
I285668
asS'C Dunn'
p959
(lp960
I67472538
asS'Jaak Saks'
p961
(lp962
I46922078
asS'William Scarbrough'
p963
(lp964
I32572963
asS'Maria Ashot'
p965
(lp966
I57087051
aI72249447
asS'Lynn'
p967
(lp968
I337474
aI17531169
aI66105277
asS'WiltonTraveler'
p969
(lp970
I31215304
asS'DHL'
p971
(lp972
I63330769
asS'Peter Zenger'
p973
(lp974
I55122416
asS'Leonard Miller'
p975
(lp976
I26420093
asS'M'
p977
(lp978
I71038466
aI46998359
aI48933764
aI35795074
aI67367059
aI69591840
aI67129405
aI39686275
aI31956435
asS'craig geary'
p979
(lp980
I59781917
asS'Larry Hoffman'
p981
(lp982
I57324658
asS'carla van rijk'
p983
(lp984
I68972121
aI55570583
asS'A Guy'
p985
(lp986
I63756704
aI71951552
asS'Someone else'
p987
(lp988
I57595872
asS'Invictus'
p989
(lp990
I69538199
asS'rice pritchard'
p991
(lp992
I65806828
asS'Artem'
p993
(lp994
I68972580
aI57384593
aI34406121
asS'Paul A Myers'
p995
(lp996
I8627568
asS'Nan Socolow'
p997
(lp998
I33461964
asS'fran soyer'
p999
(lp1000
I57179778
asS'S.N'
p1001
(lp1002
I62278871
asS'Larry Eisenberg'
p1003
(lp1004
I56166904
asS'richard'
p1005
(lp1006
I48309452
aI65543878
aI66963755
aI65504955
aI6593595
aI46902149
asS'Observer'
p1007
(lp1008
I7257380
aI58785395
aI27854225
aI35915529
asS'Nick Wright'
p1009
(lp1010
I17472874
asS'Steve the Commoner'
p1011
(lp1012
I49839668
asS'Kenneth Ranson'
p1013
(lp1014
I3332728
asS'vulcanalex'
p1015
(lp1016
I63687177
asS'Turgut Dincer'
p1017
(lp1018
I59778178
asS'Jerry Hough'
p1019
(lp1020
I62195898
asS'stu freeman'
p1021
(lp1022
I35591703
asS'Fehad'
p1023
(lp1024
I66784038
aI67769990
asS'Steve Ky.'
p1025
(lp1026
I9640850
asS'Ultraliberal'
p1027
(lp1028
I56907400
asS'B. Rothman'
p1029
(lp1030
I44420772
asS'JPS'
p1031
(lp1032
I48184291
aI17358896
asS'CHEEKOS'
p1033
(lp1034
I64667462
asS'Jack Nargundkar'
p1035
(lp1036
I20135455
asS'David Chowes'
p1037
(lp1038
I19856934
asS'WorldCommenter'
p1039
(lp1040
I69177431
asS'Matt'
p1041
(lp1042
I70032074
aI11126057
aI32294743
aI41069431
aI55025013
aI2637013
aI30993895
aI4617377
aI57454984
aI57108456
aI60259251
aI67215855
aI46904232
aI23188003
aI66241448
aI58112476
aI66554508
aI61010703
asS'Vlad-Drakul'
p1043
(lp1044
I58137944
asS'Jay Casey'
p1045
(lp1046
I11224991
asS'JW'
p1047
(lp1048
I46946672
aI48184428
aI30712658
aI63435474
aI59992966
aI61371253
asS'JP'
p1049
(lp1050
I1948827
aI60616874
aI67398771
aI45764788
aI70651102
aI19574246
aI17171402
aI1364764
aI32569693
aI65703233
asS'lawrence donohue'
p1051
(lp1052
I69298320
aI67079055
asS'JL'
p1053
(lp1054
I63594194
aI35654259
aI51628308
aI45352099
asS'terry brady'
p1055
(lp1056
I57063965
asS'Randy'
p1057
(lp1058
I18742218
aI72311557
aI40031279
aI61234103
aI64537107
aI69694343
asS'R2D2'
p1059
(lp1060
I54219617
asS'JJ'
p1061
(lp1062
I884629
aI1017172
aI69692715
aI68694808
aI65419268
asS'Counter Measures'
p1063
(lp1064
I42572458
asS'Stephen'
p1065
(lp1066
I71791464
aI56968121
aI54452364
aI46235895
aI67852099
aI64753359
aI56762672
asS'Dan Stackhouse'
p1067
(lp1068
I33213475
asS'HealedByGod'
p1069
(lp1070
I68007402
asS'Steve C.'
p1071
(lp1072
I39855427
asS'Timbob'
p1073
(lp1074
I65501827
asS'JB'
p1075
(lp1076
I60949625
aI27624692
aI67175433
aI15864551
aI61419055
aI7091348
aI68898381
aI2434492
asS'JC'
p1077
(lp1078
I61528208
aI63857060
aI46945167
aI58849518
aI65165150
aI5442678
aI34643374
asS'Kathy'
p1079
(lp1080
I46581136
aI65076459
aI56297241
aI73107029
aI34281597
aI61010020
asS'PB'
p1081
(lp1082
I20620430
aI61577401
asS'raven55'
p1083
(lp1084
I16520164
asS'Robert Dana'
p1085
(lp1086
I61559433
asS'William Gill, Esq.'
p1087
(lp1088
I39265425
asS'bobaceti'
p1089
(lp1090
I62696684
asS'Frea'
p1091
(lp1092
I64595286
asS'David V'
p1093
(lp1094
I47106675
asS'c harris'
p1095
(lp1096
I63794670
asS'Michael Stavsen'
p1097
(lp1098
I60905487
asS'Fred'
p1099
(lp1100
I49340744
aI65420014
aI65610624
aI26826622
aI71186001
aI35180973
aI163175
aI56735912
aI68820524
aI52288678
asS'Chicago Guy'
p1101
(lp1102
I64672620
asS'Pat Riot'
p1103
(lp1104
I68376477
aI8249382
asS'Richard Muller'
p1105
(lp1106
I68917999
asS'trudds'
p1107
(lp1108
I50506373
asS'Daniel Cazalis'
p1109
(lp1110
I41792203
asS'adirondax'
p1111
(lp1112
I491766
asS'Sergey'
p1113
(lp1114
I68890630
aI71377483
aI21415154
aI68967358
aI55126565
aI69694401
aI69222152
aI68889982
aI69006945
aI63796040
asS'Daniel Hudson'
p1115
(lp1116
I6588149
asS'Steve Hunter'
p1117
(lp1118
I44499492
asS'Charles Munn, MSGT USAF, Retired'
p1119
(lp1120
I40040774
asS'dg'
p1121
(lp1122
I33160082
asS'joftoronto'
p1123
(lp1124
I66364854
asS'Ron Cohen'
p1125
(lp1126
I45502378
asS'Pierce Randall'
p1127
(lp1128
I57645384
asS'njglea'
p1129
(lp1130
I60025659
asS'Patrick Sorensen'
p1131
(lp1132
I23573532
asS'dz'
p1133
(lp1134
I47825284
asS'Michael Hoffman'
p1135
(lp1136
I62218655
asS'walterrhett'
p1137
(lp1138
I33605332
asS'nk'
p1139
(lp1140
I48103325
asS'yasuaki torii'
p1141
(lp1142
I60907616
asS'HRM911'
p1143
(lp1144
I50437790
asS'EJZimmerman'
p1145
(lp1146
I69280534
asS'Mike Murray MD'
p1147
(lp1148
I46402288
asS'Nikita'
p1149
(lp1150
I21678365
asS'Michael F'
p1151
(lp1152
I7132394
asS'Daniel'
p1153
(lp1154
I70584825
aI6542014
aI72581525
aI67448836
aI69489438
aI53598629
aI66664677
aI46805
aI69716542
aI69790633
aI52821165
aI27830943
asS'koyaanisqatsi'
p1155
(lp1156
I56386352
asS'N. Smith'
p1157
(lp1158
I64679318
asS"Michael O'Neill"
p1159
(lp1160
I59709995
asS'VMG'
p1161
(lp1162
I59960698
asS'Tom Brucia'
p1163
(lp1164
I20161804
asS'Wilson1ny'
p1165
(lp1166
I65277258
asS'Jeffery'
p1167
(lp1168
I59685043
asS'AER'
p1169
(lp1170
I25197243
asS'davidny34'
p1171
(lp1172
I60772256
asS'observer'
p1173
(lp1174
I68626499
aI43048339
aI65155451
aI59842223
aI51783517
asS'Gennady Shkliarevsky'
p1175
(lp1176
I61891061
asS'Patricia'
p1177
(lp1178
I1184284
aI37556152
aI68356220
aI61711250
asS'EMK'
p1179
(lp1180
I58202245
asS'Dehliaa'
p1181
(lp1182
I68678121
asS'Wolff'
p1183
(lp1184
I67277961
asS'VHZ'
p1185
(lp1186
I15224112
asS'r2d2'
p1187
(lp1188
I60897717
asS'Wendell Murray'
p1189
(lp1190
I33677097
asS'Jay Saxena'
p1191
(lp1192
I67479624
asS'John'
p1193
(lp1194
I48000580
aI49328914
aI48751530
aI69655562
aI67571164
aI8959521
aI454062
aI35544359
aI45540664
aI51171525
aI65589535
aI50091110
aI69844827
aI69378356
aI53169953
aI53256445
aI51296895
aI65746450
aI67896651
aI6590076
aI66849057
aI51054537
aI62113056
aI71376780
aI57472127
aI69764460
aI69470282
aI67086742
aI49923880
aI59541610
aI50829156
aI51505151
aI4009962
aI67894981
aI68111820
aI68971279
aI6999444
aI57174940
aI65846744
aI14884078
aI68183779
aI60831458
aI63460846
aI56507865
aI56986749
aI55649843
aI70068427
aI51241381
aI69914189
aI68020801
aI54526736
aI59694270
aI69582775
aI69583706
aI69583545
aI63508697
aI68604031
aI63089528
aI31742608
aI10433253
aI58433469
aI67327671
aI65035652
aI53415511
aI42450540
aI47783321
aI69020764
aI51184641
aI55210464
aI15885556
aI63687913
aI64743399
aI13803738
aI19166134
aI37121865
aI60242630
asS'SovietBear'
p1195
(lp1196
I56676495
aI71332647
asS'pete'
p1197
(lp1198
I47276508
asS'Dmitri Ivanov'
p1199
(lp1200
I53218231
asS'PT'
p1201
(lp1202
I61320214
asS'A R Dauharry'
p1203
(lp1204
I67931981
asS'Barbara Michel'
p1205
(lp1206
I30682849
asS'Cowboy Marine'
p1207
(lp1208
I63307583
asS'Doug Broome'
p1209
(lp1210
I16862426
asS'Air Marshal of Bloviana'
p1211
(lp1212
I69051443
asS'Jack Mahoney'
p1213
(lp1214
I3192033
asS'Look Ahead'
p1215
(lp1216
I18426496
asS'sapereaudeprime'
p1217
(lp1218
I48746507
asS'Dan Green'
p1219
(lp1220
I60338283
asS'PK'
p1221
(lp1222
I49462118
aI50544970
aI60933545
asS'makhanko'
p1223
(lp1224
I20887029
asS'GEM'
p1225
(lp1226
I35280216
asS'Kristina'
p1227
(lp1228
I69405693
aI68896743
aI57637687
asS'Bob Laughlin'
p1229
(lp1230
I42128569
asS'Mike Halpern'
p1231
(lp1232
I41944187
asS'Rob Jons'
p1233
(lp1234
I58877077
asS'zvihl'
p1235
(lp1236
I31752662
asS'Occupy Government'
p1237
(lp1238
I788867
asS'Dmitri'
p1239
(lp1240
I52435102
aI65443465
asS'Tim McCoy'
p1241
(lp1242
I39513898
asS'HKGuy'
p1243
(lp1244
I65182526
asS'S'
p1245
(lp1246
I71578093
aI290928
asS'Marco'
p1247
(lp1248
I64588636
aI69754100
aI65165861
aI40203866
asS'MD Cooks'
p1249
(lp1250
I25676827
asS'fact or friction?'
p1251
(lp1252
I66915803
asS'Mr Magoo 5'
p1253
(lp1254
I46839220
asS'Eochaid mac Eirc'
p1255
(lp1256
I69455970
asS'jb'
p1257
(lp1258
I45513833
aI40982148
aI17072050
aI63651522
asS'fritzrxx'
p1259
(lp1260
I37664770
asS'frederic luxemburg'
p1261
(lp1262
I68889678
asS'Jason'
p1263
(lp1264
I19799592
aI72513367
aI35014462
aI20136696
aI65344229
aI67839480
aI72219666
aI17445624
asS'Carolyn'
p1265
(lp1266
I67334363
asS'RAP'
p1267
(lp1268
I61167350
asS'broadside'
p1269
(lp1270
I67403260
asS'Ainhoa'
p1271
(lp1272
I44343458
asS'Steve'
p1273
(lp1274
I59707593
aI46240770
aI68288880
aI779936
aI20020486
aI66210859
aI65085272
aI64781743
aI48767251
aI47184630
aI41188
aI2075892
aI61248482
aI69814294
aI21208144
aI63238073
aI28334569
aI66068810
aI23966029
aI73090383
aI66130305
aI3601500
aI360837
aI64800124
aI5196664
aI55036163
aI47238485
aI68936094
aI70307623
aI69582538
aI70261741
aI51438960
aI67130436
aI63527066
aI60409826
aI43629352
aI64905370
aI19550603
aI7288017
aI65911936
aI16967131
aI15399557
aI14740628
aI30297861
aI66126330
aI67873433
asS'Dotconnector'
p1275
(lp1276
I13201855
asS'sophia'
p1277
(lp1278
I61190755
asS'Todd'
p1279
(lp1280
I52957119
aI49938505
aI53315068
asS'NYT Reader'
p1281
(lp1282
I57683163
aI65960273
aI58236459
asS'Query'
p1283
(lp1284
I64367229
asS'e.s.'
p1285
(lp1286
I57259449
asS'Steve Fankuchen'
p1287
(lp1288
I66581027
asS'Dreamer'
p1289
(lp1290
I5162290
asS'Phil Greene'
p1291
(lp1292
I34314502
asS'Timothy'
p1293
(lp1294
I72221260
aI66379934
aI66701620
asS'bongo'
p1295
(lp1296
I67384322
asS'jim'
p1297
(lp1298
I60810463
aI35249627
aI64950503
aI67658429
aI52075806
aI68407754
aI46979858
aI39095864
aI964814
aI62103515
asS'Bates'
p1299
(lp1300
I63467737
asS'Casey Dorman'
p1301
(lp1302
I69055351
asS'WIMR'
p1303
(lp1304
I12906366
asS'pm'
p1305
(lp1306
I63430792
aI68898645
asS'karen'
p1307
(lp1308
I57258082
asS'Interested'
p1309
(lp1310
I16447208
asS'berserker76'
p1311
(lp1312
I19069132
asS'rjesp37'
p1313
(lp1314
I59349245
asS'Joe Yohka'
p1315
(lp1316
I54101121
asS'Roland Berger'
p1317
(lp1318
I50988656
asS'Dmitry'
p1319
(lp1320
I66621643
aI69587614
aI71182318
aI68919969
aI69376385
aI68022678
aI68929337
asS'SNillissen'
p1321
(lp1322
I65341974
asS'Richard'
p1323
(lp1324
I20843229
aI12234861
aI16975234
aI49528248
aI67030584
aI65330073
aI68728058
aI8328117
aI65612862
aI67778741
aI63535566
aI72142227
aI66305056
aI56791527
aI58596433
aI69038262
aI68199191
aI69055267
aI60135671
aI69157703
aI6972344
aI50953780
aI48337936
aI68242121
aI7067554
asS'Dan Stewart'
p1325
(lp1326
I60045448
asS'howard'
p1327
(lp1328
I69790197
asS'Pierre Guerlain'
p1329
(lp1330
I11106700
asS'Janek Izdebski'
p1331
(lp1332
I48086251
asS'Sasha'
p1333
(lp1334
I55629847
aI54358980
aI42856025
aI68727559
aI65414830
aI55294416
aI7884317
asS'Jodi'
p1335
(lp1336
I59397827
asS'Don Williams'
p1337
(lp1338
I3153834
asS'David Cache'
p1339
(lp1340
I41856252
asS'Marty K.'
p1341
(lp1342
I51001769
asS'Doris'
p1343
(lp1344
I67497857
aI3148568
aI40933768
asS'The Real Mr. Magoo'
p1345
(lp1346
I21212583
asS'Willy Van Damme'
p1347
(lp1348
I67751936
asS'Tom Paine'
p1349
(lp1350
I27526833
aI65235784
asS'Mike D.'
p1351
(lp1352
I69432173
aI21982334
asS'CK'
p1353
(lp1354
I16225687
aI73106716
asS'Dave B'
p1355
(lp1356
I12974161
aI51919798
asS'Marvinsky'
p1357
(lp1358
I18300020
asS'John S.'
p1359
(lp1360
I54973439
aI36052407
aI25342693
asS'stronix'
p1361
(lp1362
I99744
asS'R.L'
p1363
(lp1364
I69721838
aI67813053
asS'Blue State'
p1365
(lp1366
I47269236
asS'CA'
p1367
(lp1368
I72918945
aI67192205
asS'Phil'
p1369
(lp1370
I6722164
aI195475
aI68477054
aI21198644
aI68982652
aI68814049
aI42027174
aI53460133
aI15941673
asS'andrew'
p1371
(lp1372
I53196748
aI47797683
aI69380211
asS'Barbara T'
p1373
(lp1374
I71028788
asS'MarkH'
p1375
(lp1376
I49846516
asS'bnc'
p1377
(lp1378
I46825184
asS'Jack M'
p1379
(lp1380
I65481849
asS'G. Sears'
p1381
(lp1382
I64527736
asS'stevenz'
p1383
(lp1384
I4728964
asS'Stuart'
p1385
(lp1386
I57377024
aI450196
aI43645449
asS'Grossness54'
p1387
(lp1388
I33647677
asS'Barbara'
p1389
(lp1390
I19271414
aI56948248
aI45919350
aI50577538
asS'Stolypin'
p1391
(lp1392
I68118008
asS'Ladislav Nemec'
p1393
(lp1394
I4187964
asS'Steamboater'
p1395
(lp1396
I28789982
asS'Want2know'
p1397
(lp1398
I62008270
asS'bohdan yuri'
p1399
(lp1400
I69000706
asS'Steve Singer'
p1401
(lp1402
I8562342
asS'Lawyer/DJ'
p1403
(lp1404
I58907738
asS'Rodrian Roadeye'
p1405
(lp1406
I67491119
asS'Ann'
p1407
(lp1408
I13433390
aI39797658
aI58104291
aI3171212
aI58985823
aI59914032
aI63088235
asS'Expat'
p1409
(lp1410
I69274803
aI57879216
aI36982575
asS'neal'
p1411
(lp1412
I62643607
asS'Marina Dillon'
p1413
(lp1414
I67901746
asS'will'
p1415
(lp1416
I69276998
aI69102441
asS'Patrick Stevens'
p1417
(lp1418
I56958676
asS'Ivan'
p1419
(lp1420
I69378714
aI68855401
aI55507360
aI65550745
aI48989599
aI25354277
asS'Ordell Robbie'
p1421
(lp1422
I72931604
asS'Alan Sabrosky'
p1423
(lp1424
I58555897
asS'Bob Garcia'
p1425
(lp1426
I3125003
asS'MKM'
p1427
(lp1428
I52521572
asS'Joseph F Foster'
p1429
(lp1430
I26910996
asS'Aymeri'
p1431
(lp1432
I31602819
asS'dubious'
p1433
(lp1434
I7257849
asS'Coolhunter'
p1435
(lp1436
I62569741
asS'dogpatch'
p1437
(lp1438
I66300873
asS'vs'
p1439
(lp1440
I5119718
asS'Michael S.'
p1441
(lp1442
I39490855
asS'Pushkin'
p1443
(lp1444
I66918161
asS'Ted Gemberling'
p1445
(lp1446
I40976267
asS'slartibartfast'
p1447
(lp1448
I40647333
asS'jeff f'
p1449
(lp1450
I33981006
asS'pstewart'
p1451
(lp1452
I54293555
asS'A. Stanton'
p1453
(lp1454
I35186053
asS'Steve Bolger'
p1455
(lp1456
I67892453
aI67908255
asS'petitdane'
p1457
(lp1458
I68644919
asS'Andre'
p1459
(lp1460
I71210081
aI65260364
aI62229675
aI204724
aI69382587
aI69075029
asS'Sequel'
p1461
(lp1462
I46938652
asS'Karen'
p1463
(lp1464
I25822622
aI69690047
aI20672984
aI66880150
asS'j. von hettlingen'
p1465
(lp1466
I64867739
asS'Tg-Arn'
p1467
(lp1468
I60134990
asS'G.'
p1469
(lp1470
I60381712
aI64898350
asS'Phillip'
p1471
(lp1472
I1329665
asS'CNoble'
p1473
(lp1474
I30236238
asS'S.B.'
p1475
(lp1476
I68964568
aI335926
aI68451705
asS'Onno Frowein'
p1477
(lp1478
I42927596
asS'Jonathan Baker'
p1479
(lp1480
I59697229
asS'Mortarman'
p1481
(lp1482
I64521995
asS'NYHuguenot'
p1483
(lp1484
I65312034
asS'Doug'
p1485
(lp1486
I19191368
aI53730037
aI68787127
aI72308912
aI56756821
aI23513948
aI52076380
aI57608993
aI63759528
aI59061051
asS'Nathan'
p1487
(lp1488
I68884816
aI46692973
asS'IT'
p1489
(lp1490
I17846436
asS'Kyle'
p1491
(lp1492
I30510795
aI70584625
aI69583939
aI68141559
aI67758067
asS'manfred marcus'
p1493
(lp1494
I47112177
asS'Oleg'
p1495
(lp1496
I61027445
aI71341055
aI72292784
aI25818822
aI69252122
aI62572022
aI68981069
aI68146560
asS'LVG'
p1497
(lp1498
I47446432
asS'Greg'
p1499
(lp1500
I56798246
aI38970415
aI66293244
aI71932791
aI42536752
aI37669296
aI46980960
aI45004725
aI46829210
aI69405782
aI12715015
aI40272304
aI59047304
aI56580327
aI931139
aI59908542
aI60239154
aI59626381
asS'yossarian.lives'
p1501
(lp1502
I51779585
asS'Nancy'
p1503
(lp1504
I57771928
aI63367016
aI69581427
aI12525503
aI60280038
aI65883026
aI62239973
asS'VW'
p1505
(lp1506
I1378024
asS'Twist and Shout'
p1507
(lp1508
I48362637
asS'Reuben Ryder'
p1509
(lp1510
I65308560
asS'Native New Yorker'
p1511
(lp1512
I60055654
asS'Bill Appledorf'
p1513
(lp1514
I1954665
asS'DaveD'
p1515
(lp1516
I7466853
asS'PWR'
p1517
(lp1518
I66600126
asS'Curiouser'
p1519
(lp1520
I46060731
asS'R. Karch'
p1521
(lp1522
I33229477
asS'Easow Samuel'
p1523
(lp1524
I68679655
asS'charlie'
p1525
(lp1526
I60066875
aI50467496
aI20880749
aI40761566
asS'Julie'
p1527
(lp1528
I55293238
aI29596605
aI68387277
aI63486420
aI61463801
asS'Tommy Tuna'
p1529
(lp1530
I60846114
asS'Julia'
p1531
(lp1532
I7152840
aI71088731
aI73015700
aI71043511
aI43912878
aI68861721
aI69043328
asS'Che Beauchard'
p1533
(lp1534
I10042745
asS'Old School'
p1535
(lp1536
I68657311
asS'Walter'
p1537
(lp1538
I33728977
aI67224438
aI64986254
aI30776714
aI38421270
aI57142258
asS'Mathias Weitz'
p1539
(lp1540
I56977872
asS'Taurean'
p1541
(lp1542
I18049014
asS'Ozzie7'
p1543
(lp1544
I55803906
asS'Dennis'
p1545
(lp1546
I35012889
aI22528152
aI65804915
aI72308369
aI59105748
aI53510853
aI44603522
aI68870581
aI68432058
aI37294419
aI68893437
aI59592863
asS'Maui Yankee'
p1547
(lp1548
I39126935
asS"Dheep'"
p1549
(lp1550
I17557921
asS'Pete'
p1551
(lp1552
I46537703
aI18557294
aI63098964
aI71934900
aI67277135
aI16576365
aI67880186
aI68030186
asS'A. Taxpayer'
p1553
(lp1554
I61704906
asS'Mikhail'
p1555
(lp1556
I14883695
aI66282126
aI68884590
aI68121877
aI65285482
aI68925628
aI68917132
asS'Russell'
p1557
(lp1558
I68669272
aI64760773
asS'BC'
p1559
(lp1560
I64511541
aI69026692
aI65079394
asS'Dmitry Mikheyev'
p1561
(lp1562
I39206429
asS'DRS'
p1563
(lp1564
I34963770
asS'Dick Diamond'
p1565
(lp1566
I37337225
asS'Snow Cloud'
p1567
(lp1568
I10771127
asS'Baran1961'
p1569
(lp1570
I61088205
asS'Steve Austin'
p1571
(lp1572
I9640850
asS'StopPutinsWar'
p1573
(lp1574
I35081619
asS'Tony Wicher'
p1575
(lp1576
I64550919
asS'paul'
p1577
(lp1578
I36117
aI47231823
aI20909092
aI67028298
aI21739520
asS'dan h'
p1579
(lp1580
I54470258
asS'Porter'
p1581
(lp1582
I5574455
asS'Sergei'
p1583
(lp1584
I21536924
aI66698870
asS'Szafran'
p1585
(lp1586
I6767904
asS'NYCLAW'
p1587
(lp1588
I1828620
asS'Babeouf'
p1589
(lp1590
I59123676
asS'bsmonitor'
p1591
(lp1592
I61099625
asS'Dan Kuhn'
p1593
(lp1594
I6818204
asS'r.j. paquin'
p1595
(lp1596
I29337967
asS'K.S.Venkatachalam'
p1597
(lp1598
I55083635
asS'blasmaic'
p1599
(lp1600
I33804506
asS'Elizabeth Renant'
p1601
(lp1602
I25994701
asS'Marina'
p1603
(lp1604
I68415736
aI68877142
aI69583626
aI69584543
aI69155615
aI33063116
asS'Philip'
p1605
(lp1606
I47778484
aI71388825
aI69005200
asS'J. Cornelio'
p1607
(lp1608
I54744561
asS'Patrice Ayme'
p1609
(lp1610
I35921939
asS'Skeptical'
p1611
(lp1612
I69398955
aI40780166
aI20963665
asS'nvr'
p1613
(lp1614
I69123517
asS'Mel Farrell'
p1615
(lp1616
I30706749
asS'James'
p1617
(lp1618
I797837
aI56982
aI15422447
aI54984145
aI39859659
aI69361521
aI65494538
aI59338759
aI72497088
aI71389404
aI66902996
aI63808602
aI66885290
aI54612653
aI69288458
aI53774515
aI66222588
aI72368500
aI70592419
aI69766954
aI6318690
aI69581274
aI68524414
aI25898725
aI26380717
aI48666376
aI68154724
aI35660922
asS'Marion Stieglitz'
p1619
(lp1620
I56611902
asS'Roberto'
p1621
(lp1622
I69356929
aI59349245
aI71586800
aI66167933
asS'Shark'
p1623
(lp1624
I48427661
asS'natan'
p1625
(lp1626
I46382827
asS'rude man'
p1627
(lp1628
I32822214
asS'Aslan'
p1629
(lp1630
I68526243
asS'Nelson'
p1631
(lp1632
I67543487
aI18113039
aI68932879
asS'Preventallwars.org'
p1633
(lp1634
I67765937
asS'Howard Kaplan'
p1635
(lp1636
I6533444
asS'Rudolf'
p1637
(lp1638
I27373230
asS'PE'
p1639
(lp1640
I67489859
aI16061991
asS'Steven'
p1641
(lp1642
I69600943
aI16492105
aI47455183
aI47391817
aI69274569
aI68899346
aI67922644
asS'Dudley Dooright'
p1643
(lp1644
I63763256
asS'Art'
p1645
(lp1646
I3842404
aI65465530
aI54940165
asS'visio314'
p1647
(lp1648
I42061045
asS'Kathryn Tominey'
p1649
(lp1650
I53034201
asS'Iver Thompson'
p1651
(lp1652
I37475504
asS'Mookie'
p1653
(lp1654
I39057910
asS'Other Jersey Guy'
p1655
(lp1656
I36881565
asS'TC'
p1657
(lp1658
I54465496
aI28971743
aI4610174
aI1196510
aI3464643
aI60551768
asS'MacDonald'
p1659
(lp1660
I67614492
asS'Thinker'
p1661
(lp1662
I21817067
aI67663485
asS'CommonCents'
p1663
(lp1664
I59749362
asS'Rob Polhemus'
p1665
(lp1666
I36916258
asS'Blue state'
p1667
(lp1668
I47269236
asS'Maria'
p1669
(lp1670
I12476546
aI69588112
aI15604159
aI58776232
aI69593102
aI68951541
aI68899190
aI65865016
asS'michjas'
p1671
(lp1672
I48147869
asS'RidgewoodDad'
p1673
(lp1674
I25924743
asS'Brad'
p1675
(lp1676
I56388038
aI45256204
aI39918670
aI69043494
aI1826961
aI56706246
asS'nostone'
p1677
(lp1678
I50633747
aI64951586
asS'Bos'
p1679
(lp1680
I7221086
asS'sheeplewatch'
p1681
(lp1682
I20122764
asS'fatboyfatboy'
p1683
(lp1684
I12490792
asS'christian'
p1685
(lp1686
I11037116
asS'Reader'
p1687
(lp1688
I68872544
aI69768894
aI66726688
asS'Richard A. Petro'
p1689
(lp1690
I61167350
asS'NYer'
p1691
(lp1692
I19888233
aI69234747
asS'Mark'
p1693
(lp1694
I13584635
aI72219278
aI60356461
aI68882548
aI37172165
aI21218149
aI57905386
aI65024030
aI39024359
aI600032
aI69003684
aI36715041
aI64828179
aI67872813
aI40400975
aI17235477
aI69517178
aI34975531
aI27034397
aI11525842
aI55789176
aI14013936
aI68764080
aI39937021
aI1924505
aI66167368
aI20950220
aI60354610
aI42654429
aI69718080
aI57446023
aI72210565
aI64339895
aI64629585
aI65381055
aI17869631
aI69377969
aI67757022
aI35630861
aI60045497
aI44878991
aI33435585
aI66433177
aI36256008
aI39702585
aI58857940
asS'mancuroc'
p1695
(lp1696
I12582762
asS'Andy'
p1697
(lp1698
I66820187
aI25427370
aI72906530
aI880635
aI37489311
aI68569155
aI57851056
aI21937352
asS'Alexander B.'
p1699
(lp1700
I63306174
aI41258329
asS'vova'
p1701
(lp1702
I67146836
asS'Luccia'
p1703
(lp1704
I21035131
asS'jstevend'
p1705
(lp1706
I25036455
asS'Jonathan'
p1707
(lp1708
I16809295
aI15941542
aI11145175
aI49897345
aI66041785
aI69532069
aI68181200
aI52116761
aI56106566
aI69666321
aI8958492
aI66331472
aI20526596
aI61475327
aI58298309
asS'Don F'
p1709
(lp1710
I66040415
asS'Mary'
p1711
(lp1712
I58303694
aI60971534
aI30315546
aI143155
aI66935448
aI57856608
aI42637062
aI48536104
aI58344200
asS'Eugene'
p1713
(lp1714
I55887036
aI69154363
aI69263068
aI71262118
aI68488890
aI69328490
aI69736964
aI69618672
aI69552161
asS'Snip'
p1715
(lp1716
I4754757
asS'Mike'
p1717
(lp1718
I35495493
aI7851087
aI9763227
aI56253906
aI28509509
aI62331948
aI9936142
aI29614657
aI64364262
aI69844114
aI52090295
aI47752187
aI65117380
aI1584349
aI59923685
aI66822756
aI43152304
aI72310205
aI68883801
aI57636093
aI49682939
aI2375860
aI57451634
aI64745429
aI18365254
aI24017299
aI54492869
aI70018813
aI43257391
aI16596759
aI23373146
aI69620922
aI2014008
aI70148533
aI61115976
aI60039551
aI68896722
aI5158227
aI62985102
aI67066036
aI1645224
aI59924525
aI69718255
aI64431227
aI3075546
aI59748541
aI53937733
aI67766789
aI69046136
aI53156986
aI31786961
aI11771572
aI65986804
aI64116672
aI18162047
aI57359325
aI69033390
aI68230632
aI15408864
aI69006808
aI57570243
aI59283807
aI56244419
aI21626747
aI68207245
asS'grimm reaper'
p1719
(lp1720
I65682592
asS'Johndrake07'
p1721
(lp1722
I60397338
asS'Frank'
p1723
(lp1724
I34762129
aI68443982
aI56956560
aI63769464
aI54466495
aI56406603
aI68917822
aI48379784
aI36992847
aI63446263
aI45962523
aI66934520
aI31104681
asS'Edward Sevume'
p1725
(lp1726
I64316486
asS'Len'
p1727
(lp1728
I1222470
aI63631403
aI69142625
asS'MNW'
p1729
(lp1730
I49069088
asS'Gerhard Miksche'
p1731
(lp1732
I60092389
asS'Dave'
p1733
(lp1734
I46906882
aI30822247
aI55214517
aI52856709
aI65608819
aI59198225
aI48719884
aI69573394
aI52882115
aI67819451
aI58327237
aI5774882
aI68891268
aI65166698
aI51237088
aI34714713
aI2549921
aI59346395
aI53700656
aI68530052
aI67726603
aI63511611
aI59591266
aI45909032
aI63296288
aI1322726
asS'William Park'
p1735
(lp1736
I44838478
asS'Sharkie'
p1737
(lp1738
I6244554
asS'JMM'
p1739
(lp1740
I60071401
asS'Chris'
p1741
(lp1742
I68821460
aI18884537
aI56181442
aI55112810
aI34238925
aI71930033
aI59016607
aI69745796
aI33093385
aI71370158
aI9337405
aI1614882
aI5237253
aI67130651
aI35041944
aI69074638
aI58213233
aI61108714
aI62270705
aI66993507
aI5229509
aI4664185
aI8394178
aI65443890
aI52850857
aI69694301
aI68666334
aI33107304
aI11598502
aI73124536
aI68880117
aI57518069
aI67502732
aI63360714
aI573802
aI5363730
aI17225524
aI4064105
asS'Nick Metrowsky'
p1743
(lp1744
I432006
asS'Keith'
p1745
(lp1746
I67202990
aI59004200
aI31338558
aI1562254
aI41004437
aI68162036
aI65718760
asS'ott198089'
p1747
(lp1748
I58233699
asS'Maigari'
p1749
(lp1750
I56357997
asS'Marla'
p1751
(lp1752
I16809063
asS'TDurk'
p1753
(lp1754
I21573232
asS'Vadim'
p1755
(lp1756
I68889260
aI56523906
asS'OrtoAzia'
p1757
(lp1758
I10739370
asS'MeriJ'
p1759
(lp1760
I68489717
asS'Vlad'
p1761
(lp1762
I26113736
aI14491245
aI71206132
aI68969104
aI60049338
aI56740877
aI61956045
aI68894093
aI69000826
aI54753300
asS'JerryV'
p1763
(lp1764
I58933770
asS'Bill'
p1765
(lp1766
I5354658
aI36881565
aI46844347
aI65159078
aI34112351
aI4348953
aI4735888
aI59436480
aI68782669
aI6487846
aI42578635
aI70279025
aI69721829
aI13901309
aI46998679
aI65326277
aI68207116
aI61774014
aI53761745
aI18211742
aI853346
aI67772787
aI10707888
aI55241796
aI49849030
aI60570769
aI39316174
aI66381020
aI38458790
aI2679043
aI61132643
aI52380489
aI434573
aI2415066
aI48845680
aI66363001
asS'J. Von Hettlingen'
p1767
(lp1768
I64867739
asS'David'
p1769
(lp1770
I7884379
aI63318837
aI68994557
aI32036298
aI59168566
aI57987015
aI72220378
aI66134487
aI72221299
aI19294125
aI62791160
aI58963537
aI36850326
aI43439910
aI67612376
aI66022665
aI67908487
aI71705621
aI60143183
aI66170271
aI46820056
aI48128345
aI37142663
aI2669012
aI54611666
aI65500853
aI45176423
aI58332028
aI2323604
aI3027420
aI68495315
aI5330036
aI56305882
aI69039472
aI331287
aI61953732
aI67523392
aI16741065
aI58255659
aI65015232
aI65115134
aI70169954
aI62543568
aI69754882
aI57177973
aI47494064
aI65987484
aI69242973
aI47630360
aI58605088
aI68825256
aI58608410
aI67806426
aI61091563
aI50864633
aI58056889
aI65798551
aI32866851
aI7390375
aI57404309
aI66650218
aI66360192
aI667942
aI26439789
asS'Guy Walker'
p1771
(lp1772
I55823171
asS'Bryan Barrett'
p1773
(lp1774
I57593485
asS'Bob'
p1775
(lp1776
I1861518
aI23771472
aI19954361
aI22413669
aI63885472
aI42471727
aI30788413
aI71842797
aI68870711
aI71883210
aI71880648
aI69107837
aI11184454
aI26397829
aI67101492
aI55777952
aI63400830
aI62349200
aI53144486
aI22192527
aI70181869
aI61852761
aI22440536
aI38808023
aI60355337
aI49483432
aI48845400
aI39753173
aI62467703
asS'Louis Tan'
p1777
(lp1778
I21326664
asS'Boobladoo'
p1779
(lp1780
I57223810
asS'Stas'
p1781
(lp1782
I69226532
asS'john willow'
p1783
(lp1784
I60847625
asS'Felman'
p1785
(lp1786
I39144797
asS'Liberty Lover'
p1787
(lp1788
I50132533
asS'Jimmy'
p1789
(lp1790
I277443
aI67253478
aI69433977
aI69128565
aI36532220
asS'RajeevA'
p1791
(lp1792
I68323146
asS'Ron'
p1793
(lp1794
I52725882
aI58529798
aI9213268
aI31567097
aI52073414
aI47882111
aI64661033
aI53658407
aI38443606
aI51661282
asS'Vizitei Yuri'
p1795
(lp1796
I28216176
asS'Rob'
p1797
(lp1798
I3095680
aI57999190
aI55263176
aI69031466
aI61506120
aI67091238
aI64772852
aI40221640
aI67910407
aI8191718
aI70251794
aI40738509
aI53118812
aI68914940
aI30590063
aI67172361
aI68773812
aI4680298
aI66672364
aI36106583
aI30458211
asS'Wizarat'
p1799
(lp1800
I34012498
asS'cordy5'
p1801
(lp1802
I26667284
asS'slightlycrazy'
p1803
(lp1804
I38835756
asS'Carol B. Russell'
p1805
(lp1806
I64375336
asS'james thompson'
p1807
(lp1808
I22159205
asS'Scientist'
p1809
(lp1810
I68898031
aI20758104
asS'Bruce Olson'
p1811
(lp1812
I26882598
asS'Cathy'
p1813
(lp1814
I60352199
aI53582043
aI54614480
asS'Citixen'
p1815
(lp1816
I41105837
asS'Neil'
p1817
(lp1818
I40142093
aI26793979
aI1784866
aI15785778
asS'AmateurHistorian'
p1819
(lp1820
I14616464
asS'Simon'
p1821
(lp1822
I15517445
aI71396732
asS'Longislander2'
p1823
(lp1824
I67768315
asS'Oaktree'
p1825
(lp1826
I65441748
asS'Kneevak'
p1827
(lp1828
I68683654
asS'Brian Sussman'
p1829
(lp1830
I3779155
asS'Sue'
p1831
(lp1832
I70149447
aI60510925
asS'Ned Kelly'
p1833
(lp1834
I4138314
asS'Aaron'
p1835
(lp1836
I73086989
aI69673872
aI67096672
aI35046697
aI11482874
aI69582085
aI65229299
aI44722278
aI63452089
asS'Adam Smith'
p1837
(lp1838
I52958576
asS'Radx28'
p1839
(lp1840
I51440497
asS'tiddle'
p1841
(lp1842
I63738877
asS'Arun'
p1843
(lp1844
I495283
aI38835301
asS'Tired of Hypocrisy'
p1845
(lp1846
I23135912
asS'Richard Estafire'
p1847
(lp1848
I69539802
asS'Equilibrium'
p1849
(lp1850
I30221001
aI8193581
asS'Hank'
p1851
(lp1852
I67852676
aI5775899
aI64862797
aI22506855
aI67972722
aI65285376
asS'NI'
p1853
(lp1854
I71181385
asS'Bill B'
p1855
(lp1856
I4523842
asS'Kevin Rothstein'
p1857
(lp1858
I44053468
asS'Lawrence'
p1859
(lp1860
I52167744
aI68484538
aI49791864
asS'Mark Dobias'
p1861
(lp1862
I17196306
asS'Jamie'
p1863
(lp1864
I20164130
aI63457685
aI898816
aI68883539
asS'Bill M'
p1865
(lp1866
I35452302
asS'Tim Kane'
p1867
(lp1868
I20454347
asS'Petey Tonei'
p1869
(lp1870
I874543
asS'Anthony'
p1871
(lp1872
I68982349
aI63657926
aI65751633
aI16054109
aI68900976
aI61310587
asS'savoritz'
p1873
(lp1874
I69483979
asS'David Foster Wallace'
p1875
(lp1876
I50089603
asS'Yurko'
p1877
(lp1878
I68841739
asS'Garrett Clay'
p1879
(lp1880
I57981976
asS'Mike 71'
p1881
(lp1882
I40204713
asS'EMIP'
p1883
(lp1884
I65314381
asS'nikolai burlakoff'
p1885
(lp1886
I59489755
asS'gik'
p1887
(lp1888
I67330124
asS'sallerup'
p1889
(lp1890
I65271440
asS'Prof.Jai Prakash Sharma,'
p1891
(lp1892
I57742567
asS'Steen'
p1893
(lp1894
I64430511
asS'indigena'
p1895
(lp1896
I21549326
asS'RDS'
p1897
(lp1898
I936278
asS'Barry Schreibman'
p1899
(lp1900
I11594615
asS'Scott Sinnock'
p1901
(lp1902
I68853513
asS'ejzim'
p1903
(lp1904
I69280534
asS'J'
p1905
(lp1906
I59397342
aI34228478
aI26478363
aI50885239
aI20909841
aI69015090
aI60071811
aI69718638
aI69736767
aI66941212
aI60331135
aI43370897
aI58509187
asS'Jon Harrison'
p1907
(lp1908
I40300692
asS'Misha'
p1909
(lp1910
I68897259
aI69622211
aI6013825
asS'Russian'
p1911
(lp1912
I71146300
aI71387175
aI68914152
aI65101751
aI69002363
aI69159620
asS'RDG'
p1913
(lp1914
I19059760
aI12993150
asS'Jonnm'
p1915
(lp1916
I27828277
asS'Bob Burns'
p1917
(lp1918
I55536998
asS'Timeout'
p1919
(lp1920
I68755782
asS'Harry'
p1921
(lp1922
I18312178
aI68252635
aI71366542
aI8651916
aI62501073
aI8235244
aI52588969
aI53999896
asS'David H. Eisenberg'
p1923
(lp1924
I51185127
asS'crane'
p1925
(lp1926
I54209953
asS'Z'
p1927
(lp1928
I68247100
aI34164107
asS'SJF'
p1929
(lp1930
I50124828
asS'Jerry Fincher Hough'
p1931
(lp1932
I62195898
asS'Richard Cusick'
p1933
(lp1934
I66135637
asS'bayboat65'
p1935
(lp1936
I65101034
asS'Mart'
p1937
(lp1938
I58377820
asS'M. Imberti'
p1939
(lp1940
I16829101
asS'jhnfanning0'
p1941
(lp1942
I33552341
asS'YouNo'
p1943
(lp1944
I67512249
asS'Jeff'
p1945
(lp1946
I46612130
aI48498357
aI34228721
aI71146734
aI11219179
aI63599195
aI33668404
aI59903507
aI60853912
aI45560183
aI63509572
aI67853249
aI15325930
aI41853960
aI56754077
aI72600319
aI69174556
aI27451758
aI770410
aI47149880
aI17841474
aI69342303
aI63675359
aI19247863
aI77471
asS'Diana'
p1947
(lp1948
I8441024
aI58116546
aI67702509
aI22629813
aI795623
aI60942940
aI43039336
aI69158787
asS'Ted'
p1949
(lp1950
I67909224
aI2675899
aI23202951
aI66108613
aI69151593
aI67407517
aI56790855
aI50235811
aI63432421
asS'Leon'
p1951
(lp1952
I64400506
aI72109537
asS'mary'
p1953
(lp1954
I58303694
aI57945213
aI41048410
asS'jiminy'
p1955
(lp1956
I8746873
asS'Eddie'
p1957
(lp1958
I34086902
aI34676499
aI67621828
aI56207172
aI66960324
asS'Captain Mandrake'
p1959
(lp1960
I11902728
asS'JRR'
p1961
(lp1962
I69308063
asS'Einstein'
p1963
(lp1964
I58955230
asS'Tony'
p1965
(lp1966
I20103707
aI72873542
aI65818972
aI34433851
aI72677906
aI29645369
aI11290522
aI17846566
aI12252435
aI65474438
aI69073975
aI5502121
aI53863389
aI20614655
aI59080336
asS'Ralph'
p1967
(lp1968
I2725950
aI14052908
aI1194442
aI26741310
aI34638948
aI19679269
asS'Sensi'
p1969
(lp1970
I57055415
asS'Vox'
p1971
(lp1972
I67803200
asS'Josh Hill'
p1973
(lp1974
I20663434
asS'JimBob'
p1975
(lp1976
I5161936
asS'Al Neuman'
p1977
(lp1978
I68153291
asS'codger'
p1979
(lp1980
I55864681
asS'Jim David'
p1981
(lp1982
I63241093
asS'Josh'
p1983
(lp1984
I58353452
aI43323599
aI68786449
aI54794957
aI19396754
aI60263778
asS'al'
p1985
(lp1986
I51413486
aI25085019
asS'AJ'
p1987
(lp1988
I33241678
aI37544338
aI46974607
aI65694888
aI51839868
aI68952110
asS'Porco Rosso'
p1989
(lp1990
I68066627
asS'Joseph Huben'
p1991
(lp1992
I1132383
asS'richard schumacher'
p1993
(lp1994
I18868541
asS'Bill Eisen'
p1995
(lp1996
I59530559
asS'Tom Cuddy'
p1997
(lp1998
I66761134
asS'S B Lewis'
p1999
(lp2000
I58565194
asS'Ferdinand'
p2001
(lp2002
I26149859
asS'Kimbo'
p2003
(lp2004
I21777609
asS'Mark Thomason'
p2005
(lp2006
I37674938
asS'mshyres'
p2007
(lp2008
I63379259
asS'Jake'
p2009
(lp2010
I70041404
aI30162120
aI68216692
aI46935094
aI48614874
aI69672209
aI23400118
asS'riclys'
p2011
(lp2012
I58410146
asS'Doolin66'
p2013
(lp2014
I57580690
asS'Max'
p2015
(lp2016
I44744017
aI63571771
aI71146898
aI61861165
aI18477730
aI71938344
aI71063746
aI19636582
aI69582934
aI52307806
aI68947285
aI69341574
aI53910589
asS'TT'
p2017
(lp2018
I4179339
asS'doug mclaren'
p2019
(lp2020
I56464046
asS'Andrew'
p2021
(lp2022
I71794710
aI69637508
aI65236645
aI56273580
aI25448451
aI61013847
aI15397072
aI880635
aI55593893
aI71029079
aI675555
aI66964410
aI15332907
aI71145316
aI65730812
aI19294125
aI26194128
aI69566058
aI69724969
aI58528167
aI66465916
aI34758041
aI69529908
aI40981612
aI31390056
asS'penna095'
p2023
(lp2024
I69030323
asS'unreceivedogma'
p2025
(lp2026
I32438179
asS'Vasily'
p2027
(lp2028
I68896627
asS'Winemaster2'
p2029
(lp2030
I60775949
asS'Colenso'
p2031
(lp2032
I26738619
asS'Olga'
p2033
(lp2034
I69340696
aI43755139
aI67772008
aI68970439
aI69591440
aI69645572
aI69062958
aI68889638
aI62637493
asS'Ross'
p2035
(lp2036
I41190379
aI73086714
aI57150597
aI68842624
aI67251352
asS'Jenifer Wolf'
p2037
(lp2038
I69131366
asS'BillyD'
p2039
(lp2040
I17202192
asS'Mark Morss'
p2041
(lp2042
I14927227
asS'AC'
p2043
(lp2044
I6967505
aI59251445
aI27537473
aI30226984
asS'Alex'
p2045
(lp2046
I5682257
aI68898463
aI73081261
aI26969170
aI53658874
aI68742211
aI67078434
aI25331114
aI66149785
aI65676996
aI69378826
aI54276145
aI68901900
aI19634607
aI25520844
aI44455958
aI25876570
aI50027357
aI71461999
aI5813
aI71374910
aI64511312
aI68112282
aI71181822
aI69020757
aI56901921
aI12961961
aI71865216
aI68976025
aI68870634
aI69037751
aI68896320
aI68112499
aI40532940
aI31780122
aI68547032
aI69716565
aI46736523
aI59757418
aI69583767
aI21080283
aI56423927
aI69080031
aI17183408
aI65479299
aI4117853
aI69234969
aI11690688
aI68878217
aI68889703
aI60187700
aI58752004
aI68932826
aI17003558
aI68385478
aI68965367
aI68894376
aI47130316
aI32660348
asS'AD'
p2047
(lp2048
I59610530
aI35809040
asS'Vladimir'
p2049
(lp2050
I23739857
aI68921486
aI68980929
aI68120386
aI69588806
aI69284143
aI68920359
aI68890856
aI65347316
asS'Sudhir'
p2051
(lp2052
I2412066
asS'Swami'
p2053
(lp2054
I3331729
asS'AK'
p2055
(lp2056
I68896047
aI69557719
aI29606989
aI7884317
aI69143181
asS'Carolyn Egeli'
p2057
(lp2058
I62499561
asS'timoty'
p2059
(lp2060
I55244865
asS'AO'
p2061
(lp2062
I57677228
aI69373511
asS'Fred Bauder'
p2063
(lp2064
I18648300
asS'AR'
p2065
(lp2066
I10369639
aI65503628
aI67916533
asS'Scow2man'
p2067
(lp2068
I3898548
asS'chris'
p2069
(lp2070
I67251767
aI9151670
aI26900470
aI5066958
aI57583222
aI67686607
asS'Title Holder'
p2071
(lp2072
I67158045
asS'Dean H Hewitt'
p2073
(lp2074
I51396444
asS'Alec'
p2075
(lp2076
I69663427
aI69755831
asS'Christine McMorrow'
p2077
(lp2078
I2073520
asS'Tess Harding'
p2079
(lp2080
I23806989
asS'Brillo1'
p2081
(lp2082
I59979450
asS'Charles'
p2083
(lp2084
I60616359
aI69566625
aI48930358
aI30393754
aI36895343
aI65677364
aI46988223
aI17533637
aI43726273
aI20133793
aI14809962
aI59856684
aI17278524
aI71299546
aI32547582
aI65415438
aI16538221
aI6139665
aI66825647
aI63323233
aI26143715
aI66831177
aI49974062
asS'Al'
p2085
(lp2086
I68871751
aI20218560
aI67698638
aI56663510
aI67993423
aI39371513
aI68903428
aI65644054
asS'john rocha jr.'
p2087
(lp2088
I67601968
asS'An'
p2089
(lp2090
I62164872
asS'heinrichz'
p2091
(lp2092
I35995922
asS'globe trotter'
p2093
(lp2094
I65681782
asS'Toni Segarra'
p2095
(lp2096
I63727318
asS'Scott'
p2097
(lp2098
I36892586
aI65554584
aI68895518
aI61167964
aI28685447
aI48439744
aI62847280
aI37379042
aI15065179
aI39540238
aI60831338
asS'Cleo'
p2099
(lp2100
I4215958
asS'hbrod56'
p2101
(lp2102
I55739529
asS'Mel'
p2103
(lp2104
I67179515
aI68321879
asS'Mike Edwards'
p2105
(lp2106
I50490071
asS'Paul Cohen'
p2107
(lp2108
I1755488
asS'Diana Moses'
p2109
(lp2110
I60104105
asS'augustians'
p2111
(lp2112
I66434189
asS'Eman'
p2113
(lp2114
I64471631
as.